target datalayout = "e-m:e-p270:32:32-p271:32:32-p272:64:64-i64:64-i128:128-f80:128-n8:16:32:64-S128"
target triple = "x86_64-pc-linux-gnu"

%struct.ARKodeMemRec = type { ptr, double, ptr, i32, i32, double, double, ptr, i32, double, ptr, i32, i32, ptr, ptr, i32, ptr, ptr, i32, ptr, ptr, ptr, ptr, ptr, ptr, ptr, ptr, ptr, ptr, ptr, ptr, ptr, ptr, ptr, i32, ptr, ptr, i32, ptr, i32, ptr, ptr, ptr, ptr, ptr, ptr, ptr, ptr, ptr, ptr, ptr, ptr, ptr, ptr, ptr, ptr, ptr, ptr, ptr, ptr, ptr, ptr, ptr, ptr, ptr, ptr, i32, ptr, ptr, ptr, ptr, ptr, ptr, ptr, i32, ptr, ptr, ptr, i32, ptr, ptr, ptr, ptr, ptr, ptr, ptr, i32, i32, i32, i32, double, double, double, double, double, double, double, double, double, double, i32, ptr, i64, i32, i32, i32, i32, i64, i64, i32, i64, i64, i64, i64, i64, i64, i64, double, double, double, double, double, i32, double, double, i32, i32, i32, i32, i32, i32, i32, i32, ptr, i32, ptr, ptr, ptr, ptr, i32, i32, i32 }
%struct.ARKodeARKStepMemRec = type { ptr, ptr, i32, i32, i32, i32, i32, i32, ptr, ptr, ptr, ptr, ptr, ptr, i32, i32, i32, i32, ptr, ptr, ptr, ptr, i32, ptr, double, double, double, double, i32, double, double, double, double, double, double, i32, i64, i32, i32, i32, ptr, ptr, ptr, ptr, ptr, ptr, i32, ptr, ptr, ptr, ptr, ptr, ptr, i32, i32, i64, i64, i64, i64, i64, ptr, ptr, i32, i32, i32, double, double, ptr, i32, ptr, ptr }

@.str = private unnamed_addr constant [123 x i8] c"generated/home/dtcxzyw/WorkSpace/Projects/compilers/llvm-opt-benchmark/bench/sundials/sundials/src/arkode/arkode_arkstep.c\00", align 1
@.str.1 = private unnamed_addr constant [49 x i8] c"Must specify at least one of fe, fi (both NULL).\00", align 1
@.str.2 = private unnamed_addr constant [19 x i8] c"y0 = NULL illegal.\00", align 1
@.str.5 = private unnamed_addr constant [27 x i8] c"arkode_mem = NULL illegal.\00", align 1
@__func__.ARKStepReInit = private unnamed_addr constant [14 x i8] c"ARKStepReInit\00", align 1
@.str.11 = private unnamed_addr constant [35 x i8] c"Attempt to call before ARKodeInit.\00", align 1
@.str.12 = private unnamed_addr constant [50 x i8] c"Unable to reinitialize main ARKODE infrastructure\00", align 1
@.str.57 = private unnamed_addr constant [33 x i8] c"Time step module memory is NULL.\00", align 1

; Function Attrs: nounwind uwtable
define i32 @arkStep_AccessARKODEStepMem(ptr noundef %0, ptr noundef %1, ptr noundef %2, ptr noundef %3) #0 {
  %5 = alloca i32, align 4
  %6 = alloca ptr, align 8
  %7 = alloca ptr, align 8
  %8 = alloca ptr, align 8
  %9 = alloca ptr, align 8
  store ptr %0, ptr %6, align 8, !tbaa !3
  store ptr %1, ptr %7, align 8, !tbaa !217
  store ptr %2, ptr %8, align 8, !tbaa !219
  store ptr %3, ptr %9, align 8, !tbaa !221
  %10 = load ptr, ptr %6, align 8, !tbaa !3
  %11 = icmp eq ptr %10, null
  br i1 %11, label %12, label %14

12:                                               ; preds = %4
  %13 = load ptr, ptr %7, align 8, !tbaa !217
  call void (ptr, i32, i32, ptr, ptr, ptr, ...) @arkProcessError(ptr noundef null, i32 noundef -21, i32 noundef 2136, ptr noundef %13, ptr noundef @.str, ptr noundef @.str.5)
  store i32 -21, ptr %5, align 4
  br label %32

14:                                               ; preds = %4
  %15 = load ptr, ptr %6, align 8, !tbaa !3
  %16 = load ptr, ptr %8, align 8, !tbaa !219
  store ptr %15, ptr %16, align 8, !tbaa !15
  %17 = load ptr, ptr %8, align 8, !tbaa !219
  %18 = load ptr, ptr %17, align 8, !tbaa !15
  %19 = getelementptr inbounds nuw %struct.ARKodeMemRec, ptr %18, i32 0, i32 19
  %20 = load ptr, ptr %19, align 8, !tbaa !74
  %21 = icmp eq ptr %20, null
  br i1 %21, label %22, label %26

22:                                               ; preds = %14
  %23 = load ptr, ptr %8, align 8, !tbaa !219
  %24 = load ptr, ptr %23, align 8, !tbaa !15
  %25 = load ptr, ptr %7, align 8, !tbaa !217
  call void (ptr, i32, i32, ptr, ptr, ptr, ...) @arkProcessError(ptr noundef %24, i32 noundef -21, i32 noundef 2145, ptr noundef %25, ptr noundef @.str, ptr noundef @.str.57)
  store i32 -21, ptr %5, align 4
  br label %32

26:                                               ; preds = %14
  %27 = load ptr, ptr %8, align 8, !tbaa !219
  %28 = load ptr, ptr %27, align 8, !tbaa !15
  %29 = getelementptr inbounds nuw %struct.ARKodeMemRec, ptr %28, i32 0, i32 19
  %30 = load ptr, ptr %29, align 8, !tbaa !74
  %31 = load ptr, ptr %9, align 8, !tbaa !221
  store ptr %30, ptr %31, align 8, !tbaa !17
  store i32 0, ptr %5, align 4
  br label %32

32:                                               ; preds = %26, %22, %12
  %33 = load i32, ptr %5, align 4
  ret i32 %33
}

; Function Attrs: nounwind uwtable
define i32 @ARKStepReInit(ptr noundef %0, ptr noundef %1, ptr noundef %2, double noundef %3, ptr noundef %4) #0 {
  %6 = alloca i32, align 4
  %7 = alloca ptr, align 8
  %8 = alloca ptr, align 8
  %9 = alloca ptr, align 8
  %10 = alloca double, align 8
  %11 = alloca ptr, align 8
  %12 = alloca ptr, align 8
  %13 = alloca ptr, align 8
  %14 = alloca i32, align 4
  %15 = alloca i32, align 4
  store ptr %0, ptr %7, align 8, !tbaa !3
  store ptr %1, ptr %8, align 8, !tbaa !3
  store ptr %2, ptr %9, align 8, !tbaa !3
  store double %3, ptr %10, align 8, !tbaa !7
  store ptr %4, ptr %11, align 8, !tbaa !9
  call void @llvm.lifetime.start.p0(i64 8, ptr %12) #8
  call void @llvm.lifetime.start.p0(i64 8, ptr %13) #8
  call void @llvm.lifetime.start.p0(i64 4, ptr %14) #8
  %16 = load ptr, ptr %7, align 8, !tbaa !3
  %17 = call i32 @arkStep_AccessARKODEStepMem(ptr noundef %16, ptr noundef @__func__.ARKStepReInit, ptr noundef %12, ptr noundef %13)
  store i32 %17, ptr %14, align 4, !tbaa !13
  %18 = load i32, ptr %14, align 4, !tbaa !13
  %19 = icmp ne i32 %18, 0
  br i1 %19, label %20, label %22

20:                                               ; preds = %5
  %21 = load i32, ptr %14, align 4, !tbaa !13
  store i32 %21, ptr %6, align 4
  store i32 1, ptr %15, align 4
  br label %80

22:                                               ; preds = %5
  %23 = load ptr, ptr %12, align 8, !tbaa !15
  %24 = getelementptr inbounds nuw %struct.ARKodeMemRec, ptr %23, i32 0, i32 127
  %25 = load i32, ptr %24, align 8, !tbaa !216
  %26 = icmp eq i32 %25, 0
  br i1 %26, label %27, label %29

27:                                               ; preds = %22
  %28 = load ptr, ptr %12, align 8, !tbaa !15
  call void (ptr, i32, i32, ptr, ptr, ptr, ...) @arkProcessError(ptr noundef %28, i32 noundef -23, i32 noundef 298, ptr noundef @__func__.ARKStepReInit, ptr noundef @.str, ptr noundef @.str.11)
  store i32 -23, ptr %6, align 4
  store i32 1, ptr %15, align 4
  br label %80

29:                                               ; preds = %22
  %30 = load ptr, ptr %8, align 8, !tbaa !3
  %31 = icmp eq ptr %30, null
  br i1 %31, label %32, label %37

32:                                               ; preds = %29
  %33 = load ptr, ptr %9, align 8, !tbaa !3
  %34 = icmp eq ptr %33, null
  br i1 %34, label %35, label %37

35:                                               ; preds = %32
  %36 = load ptr, ptr %12, align 8, !tbaa !15
  call void (ptr, i32, i32, ptr, ptr, ptr, ...) @arkProcessError(ptr noundef %36, i32 noundef -22, i32 noundef 306, ptr noundef @__func__.ARKStepReInit, ptr noundef @.str, ptr noundef @.str.1)
  store i32 -22, ptr %6, align 4
  store i32 1, ptr %15, align 4
  br label %80

37:                                               ; preds = %32, %29
  %38 = load ptr, ptr %11, align 8, !tbaa !9
  %39 = icmp eq ptr %38, null
  br i1 %39, label %40, label %42

40:                                               ; preds = %37
  %41 = load ptr, ptr %12, align 8, !tbaa !15
  call void (ptr, i32, i32, ptr, ptr, ptr, ...) @arkProcessError(ptr noundef %41, i32 noundef -22, i32 noundef 314, ptr noundef @__func__.ARKStepReInit, ptr noundef @.str, ptr noundef @.str.2)
  store i32 -22, ptr %6, align 4
  store i32 1, ptr %15, align 4
  br label %80

42:                                               ; preds = %37
  %43 = load ptr, ptr %8, align 8, !tbaa !3
  %44 = icmp eq ptr %43, null
  %45 = select i1 %44, i32 0, i32 1
  %46 = load ptr, ptr %13, align 8, !tbaa !17
  %47 = getelementptr inbounds nuw %struct.ARKodeARKStepMemRec, ptr %46, i32 0, i32 5
  store i32 %45, ptr %47, align 4, !tbaa !75
  %48 = load ptr, ptr %9, align 8, !tbaa !3
  %49 = icmp eq ptr %48, null
  %50 = select i1 %49, i32 0, i32 1
  %51 = load ptr, ptr %13, align 8, !tbaa !17
  %52 = getelementptr inbounds nuw %struct.ARKodeARKStepMemRec, ptr %51, i32 0, i32 6
  store i32 %50, ptr %52, align 8, !tbaa !81
  %53 = load ptr, ptr %8, align 8, !tbaa !3
  %54 = load ptr, ptr %13, align 8, !tbaa !17
  %55 = getelementptr inbounds nuw %struct.ARKodeARKStepMemRec, ptr %54, i32 0, i32 0
  store ptr %53, ptr %55, align 8, !tbaa !82
  %56 = load ptr, ptr %9, align 8, !tbaa !3
  %57 = load ptr, ptr %13, align 8, !tbaa !17
  %58 = getelementptr inbounds nuw %struct.ARKodeARKStepMemRec, ptr %57, i32 0, i32 1
  store ptr %56, ptr %58, align 8, !tbaa !83
  %59 = load ptr, ptr %13, align 8, !tbaa !17
  %60 = getelementptr inbounds nuw %struct.ARKodeARKStepMemRec, ptr %59, i32 0, i32 33
  store double 1.000000e+00, ptr %60, align 8, !tbaa !103
  %61 = load ptr, ptr %12, align 8, !tbaa !15
  %62 = load double, ptr %10, align 8, !tbaa !7
  %63 = load ptr, ptr %11, align 8, !tbaa !9
  %64 = call i32 @arkInit(ptr noundef %61, double noundef %62, ptr noundef %63, i32 noundef 0)
  store i32 %64, ptr %14, align 4, !tbaa !13
  %65 = load i32, ptr %14, align 4, !tbaa !13
  %66 = icmp ne i32 %65, 0
  br i1 %66, label %67, label %71

67:                                               ; preds = %42
  %68 = load ptr, ptr %12, align 8, !tbaa !15
  %69 = load i32, ptr %14, align 4, !tbaa !13
  call void (ptr, i32, i32, ptr, ptr, ptr, ...) @arkProcessError(ptr noundef %68, i32 noundef %69, i32 noundef 334, ptr noundef @__func__.ARKStepReInit, ptr noundef @.str, ptr noundef @.str.12)
  %70 = load i32, ptr %14, align 4, !tbaa !13
  store i32 %70, ptr %6, align 4
  store i32 1, ptr %15, align 4
  br label %80

71:                                               ; preds = %42
  %72 = load ptr, ptr %13, align 8, !tbaa !17
  %73 = getelementptr inbounds nuw %struct.ARKodeARKStepMemRec, ptr %72, i32 0, i32 55
  store i64 0, ptr %73, align 8, !tbaa !104
  %74 = load ptr, ptr %13, align 8, !tbaa !17
  %75 = getelementptr inbounds nuw %struct.ARKodeARKStepMemRec, ptr %74, i32 0, i32 56
  store i64 0, ptr %75, align 8, !tbaa !105
  %76 = load ptr, ptr %13, align 8, !tbaa !17
  %77 = getelementptr inbounds nuw %struct.ARKodeARKStepMemRec, ptr %76, i32 0, i32 57
  store i64 0, ptr %77, align 8, !tbaa !106
  %78 = load ptr, ptr %13, align 8, !tbaa !17
  %79 = getelementptr inbounds nuw %struct.ARKodeARKStepMemRec, ptr %78, i32 0, i32 36
  store i64 0, ptr %79, align 8, !tbaa !107
  store i32 0, ptr %6, align 4
  store i32 1, ptr %15, align 4
  br label %80

80:                                               ; preds = %71, %67, %40, %35, %27, %20
  call void @llvm.lifetime.end.p0(i64 4, ptr %14) #8
  call void @llvm.lifetime.end.p0(i64 8, ptr %13) #8
  call void @llvm.lifetime.end.p0(i64 8, ptr %12) #8
  %81 = load i32, ptr %6, align 4
  ret i32 %81
}