; Function Attrs: nounwind uwtable
define i32 @ARKStepReInit(ptr noundef %0, ptr noundef %1, ptr noundef %2, double noundef %3, ptr noundef %4) local_unnamed_addr #0 {
  %6 = icmp eq ptr %0, null
  br i1 %6, label %7, label %8

7:                                                ; preds = %5
  tail call void (ptr, i32, i32, ptr, ptr, ptr, ...) @arkProcessError(ptr noundef null, i32 noundef -21, i32 noundef 2136, ptr noundef nonnull @__func__.ARKStepReInit, ptr noundef nonnull @.str, ptr noundef nonnull @.str.5) #13
  br label %arkStep_AccessARKODEStepMem.exit.thread

8:                                                ; preds = %5
  %9 = getelementptr inbounds nuw i8, ptr %0, i64 136
  %10 = load ptr, ptr %9, align 8, !tbaa !77
  %11 = icmp eq ptr %10, null
  br i1 %11, label %12, label %arkStep_AccessARKODEStepMem.exit

12:                                               ; preds = %8
  tail call void (ptr, i32, i32, ptr, ptr, ptr, ...) @arkProcessError(ptr noundef nonnull %0, i32 noundef -21, i32 noundef 2145, ptr noundef nonnull @__func__.ARKStepReInit, ptr noundef nonnull @.str, ptr noundef nonnull @.str.57) #13
  br label %arkStep_AccessARKODEStepMem.exit.thread

arkStep_AccessARKODEStepMem.exit:                 ; preds = %8
  %13 = getelementptr inbounds nuw i8, ptr %0, i64 960
  %14 = load i32, ptr %13, align 8, !tbaa !204
  %15 = icmp eq i32 %14, 0
  br i1 %15, label %16, label %17

16:                                               ; preds = %arkStep_AccessARKODEStepMem.exit
  tail call void (ptr, i32, i32, ptr, ptr, ptr, ...) @arkProcessError(ptr noundef nonnull %0, i32 noundef -23, i32 noundef 298, ptr noundef nonnull @__func__.ARKStepReInit, ptr noundef nonnull @.str, ptr noundef nonnull @.str.11) #13
  br label %arkStep_AccessARKODEStepMem.exit.thread

17:                                               ; preds = %arkStep_AccessARKODEStepMem.exit
  %18 = icmp eq ptr %1, null
  %19 = icmp eq ptr %2, null
  %or.cond = and i1 %18, %19
  br i1 %or.cond, label %20, label %21

20:                                               ; preds = %17
  tail call void (ptr, i32, i32, ptr, ptr, ptr, ...) @arkProcessError(ptr noundef nonnull %0, i32 noundef -22, i32 noundef 306, ptr noundef nonnull @__func__.ARKStepReInit, ptr noundef nonnull @.str, ptr noundef nonnull @.str.1) #13
  br label %arkStep_AccessARKODEStepMem.exit.thread

21:                                               ; preds = %17
  %22 = icmp eq ptr %4, null
  br i1 %22, label %23, label %24

23:                                               ; preds = %21
  tail call void (ptr, i32, i32, ptr, ptr, ptr, ...) @arkProcessError(ptr noundef nonnull %0, i32 noundef -22, i32 noundef 314, ptr noundef nonnull @__func__.ARKStepReInit, ptr noundef nonnull @.str, ptr noundef nonnull @.str.2) #13
  br label %arkStep_AccessARKODEStepMem.exit.thread

24:                                               ; preds = %21
  %not. = xor i1 %18, true
  %25 = zext i1 %not. to i32
  %26 = getelementptr inbounds nuw i8, ptr %10, i64 28
  store i32 %25, ptr %26, align 4, !tbaa !78
  %not.19 = xor i1 %19, true
  %27 = zext i1 %not.19 to i32
  %28 = getelementptr inbounds nuw i8, ptr %10, i64 32
  store i32 %27, ptr %28, align 8, !tbaa !84
  store ptr %1, ptr %10, align 8, !tbaa !85
  %29 = getelementptr inbounds nuw i8, ptr %10, i64 8
  store ptr %2, ptr %29, align 8, !tbaa !86
  %30 = getelementptr inbounds nuw i8, ptr %10, i64 224
  store double 1.000000e+00, ptr %30, align 8, !tbaa !93
  %31 = tail call i32 @arkInit(ptr noundef nonnull %0, double noundef %3, ptr noundef nonnull %4, i32 noundef 0) #13
  %.not20 = icmp eq i32 %31, 0
  br i1 %.not20, label %33, label %32

32:                                               ; preds = %24
  tail call void (ptr, i32, i32, ptr, ptr, ptr, ...) @arkProcessError(ptr noundef nonnull %0, i32 noundef %31, i32 noundef 334, ptr noundef nonnull @__func__.ARKStepReInit, ptr noundef nonnull @.str, ptr noundef nonnull @.str.12) #13
  br label %arkStep_AccessARKODEStepMem.exit.thread

33:                                               ; preds = %24
  %34 = getelementptr inbounds nuw i8, ptr %10, i64 384
  %35 = getelementptr inbounds nuw i8, ptr %10, i64 248
  store i64 0, ptr %35, align 8, !tbaa !94
  tail call void @llvm.memset.p0.i64(ptr noundef nonnull align 8 dereferenceable(24) %34, i8 0, i64 24, i1 false)
  br label %arkStep_AccessARKODEStepMem.exit.thread

arkStep_AccessARKODEStepMem.exit.thread:          ; preds = %12, %7, %33, %32, %23, %20, %16
  %.0 = phi i32 [ -23, %16 ], [ -22, %20 ], [ -22, %23 ], [ %31, %32 ], [ 0, %33 ], [ -21, %7 ], [ -21, %12 ]
  ret i32 %.0
}